; Function Attrs: mustprogress nofree norecurse nosync nounwind willreturn memory(argmem: readwrite) uwtable
define noundef zeroext i1 @_ZN9QuickOpen4TellEPl(ptr nocapture noundef nonnull readonly align 8 dereferenceable(2673) %0, ptr nocapture noundef writeonly %1) local_unnamed_addr #7 align 2 {
  %3 = getelementptr inbounds i8, ptr %0, i64 2568
  %4 = load i8, ptr %3, align 8
  %5 = trunc i8 %4 to i1
  br i1 %5, label %6, label %9

6:                                                ; preds = %2
  %7 = getelementptr inbounds i8, ptr %0, i64 2664
  %8 = load i64, ptr %7, align 8
  store i64 %8, ptr %1, align 8
  br label %9

9:                                                ; preds = %2, %6
  ret i1 %5
}